; Function Attrs: nounwind uwtable
define noundef i32 @ff_ccfifo_extractbytes(ptr noundef %0, ptr noundef %1, i64 noundef %2) local_unnamed_addr #0 {
  %4 = udiv i64 %2, 3
  %5 = getelementptr inbounds nuw i8, ptr %0, i64 36
  %6 = load i32, ptr %5, align 4, !tbaa !24
  %7 = icmp eq i32 %6, 1
  br i1 %7, label %8, label %16

8:                                                ; preds = %3
  %9 = getelementptr inbounds nuw i8, ptr %0, i64 48
  %10 = load ptr, ptr %9, align 8, !tbaa !4
  %11 = getelementptr inbounds nuw i8, ptr %0, i64 40
  %12 = getelementptr inbounds nuw i8, ptr %0, i64 16
  %13 = load i32, ptr %12, align 8, !tbaa !35
  %14 = getelementptr inbounds nuw i8, ptr %0, i64 20
  %15 = load i32, ptr %14, align 4, !tbaa !36
  tail call void (ptr, i32, i32, ptr, ptr, ...) @av_log_once(ptr noundef %10, i32 noundef 24, i32 noundef 48, ptr noundef nonnull %11, ptr noundef nonnull @.str, i32 noundef %13, i32 noundef %15) #3
  br label %.loopexit

16:                                               ; preds = %3
  %17 = trunc i64 %4 to i32
  %18 = getelementptr inbounds nuw i8, ptr %0, i64 32
  store i32 1, ptr %18, align 8, !tbaa !27
  %19 = icmp sgt i32 %17, 0
  br i1 %19, label %.lr.ph, label %.loopexit

.lr.ph:                                           ; preds = %16
  %20 = getelementptr inbounds nuw i8, ptr %0, i64 8
  %wide.trip.count = and i64 %4, 2147483647
  br label %21

21:                                               ; preds = %.lr.ph, %29
  %indvars.iv = phi i64 [ 0, %.lr.ph ], [ %indvars.iv.next, %29 ]
  %22 = mul nuw nsw i64 %indvars.iv, 3
  %23 = getelementptr inbounds nuw i8, ptr %1, i64 %22
  %24 = load i8, ptr %23, align 1, !tbaa !25
  %25 = and i8 %24, 2
  %or.cond.not.not = icmp eq i8 %25, 0
  br i1 %or.cond.not.not, label %.sink.split, label %26

26:                                               ; preds = %21
  %27 = and i8 %24, 4
  %.not = icmp eq i8 %27, 0
  br i1 %.not, label %29, label %.sink.split

.sink.split:                                      ; preds = %26, %21
  %.sink.in = phi ptr [ %0, %21 ], [ %20, %26 ]
  %.sink = load ptr, ptr %.sink.in, align 8, !tbaa !37
  %28 = tail call i32 @av_fifo_write(ptr noundef %.sink, ptr noundef nonnull %23, i64 noundef 1) #3
  br label %29

29:                                               ; preds = %.sink.split, %26
  %indvars.iv.next = add nuw nsw i64 %indvars.iv, 1
  %exitcond.not = icmp eq i64 %indvars.iv.next, %wide.trip.count
  br i1 %exitcond.not, label %.loopexit, label %21, !llvm.loop !38

.loopexit:                                        ; preds = %29, %16, %8
  ret i32 0
}